; ModuleID = '40/702.c'
source_filename = "40/702.c"
target datalayout = "e-m:e-p270:32:32-p271:32:32-p272:64:64-i64:64-f80:128-n8:16:32:64-S128"
target triple = "x86_64-pc-linux-gnu"

@.str = private unnamed_addr constant [16 x i8] c"%lf%lf%lf%lf%lf\00", align 1
@.str.1 = private unnamed_addr constant [14 x i8] c"Invalid input\00", align 1
@.str.2 = private unnamed_addr constant [6 x i8] c"%.4f\0A\00", align 1

; Function Attrs: noinline nounwind uwtable
define dso_local i32 @main(i32 %0, i8** %1) #0 {
  %3 = alloca i32, align 4
  %4 = alloca i32, align 4
  %5 = alloca i8**, align 8
  %6 = alloca double, align 8
  %7 = alloca double, align 8
  %8 = alloca double, align 8
  %9 = alloca double, align 8
  %10 = alloca double, align 8
  %11 = alloca double, align 8
  store i32 0, i32* %3, align 4
  store i32 %0, i32* %4, align 4
  store i8** %1, i8*** %5, align 8
  %12 = call i32 (i8*, ...) @__isoc99_scanf(i8* getelementptr inbounds ([16 x i8], [16 x i8]* @.str, i64 0, i64 0), double* %6, double* %7, double* %8, double* %9, double* %10)
  %13 = load double, double* %10, align 8
  %14 = fmul double 0x400921FB4D12D84A, %13
  %15 = fdiv double %14, 1.800000e+02
  %16 = fdiv double %15, 2.000000e+00
  store double %16, double* %10, align 8
  %17 = load double, double* %6, align 8
  %18 = load double, double* %7, align 8
  %19 = fadd double %17, %18
  %20 = load double, double* %8, align 8
  %21 = fadd double %19, %20
  %22 = load double, double* %9, align 8
  %23 = fadd double %21, %22
  %24 = fmul double 5.000000e-01, %23
  store double %24, double* %11, align 8
  %25 = load double, double* %11, align 8
  %26 = load double, double* %6, align 8
  %27 = fsub double %25, %26
  %28 = load double, double* %11, align 8
  %29 = load double, double* %7, align 8
  %30 = fsub double %28, %29
  %31 = fmul double %27, %30
  %32 = load double, double* %11, align 8
  %33 = load double, double* %8, align 8
  %34 = fsub double %32, %33
  %35 = fmul double %31, %34
  %36 = load double, double* %11, align 8
  %37 = load double, double* %9, align 8
  %38 = fsub double %36, %37
  %39 = fmul double %35, %38
  %40 = load double, double* %6, align 8
  %41 = load double, double* %7, align 8
  %42 = fmul double %40, %41
  %43 = load double, double* %8, align 8
  %44 = fmul double %42, %43
  %45 = load double, double* %9, align 8
  %46 = fmul double %44, %45
  %47 = load double, double* %10, align 8
  %48 = call double @cos(double %47) #3
  %49 = fmul double %46, %48
  %50 = load double, double* %10, align 8
  %51 = call double @cos(double %50) #3
  %52 = fmul double %49, %51
  %53 = fsub double %39, %52
  store double %53, double* %11, align 8
  %54 = load double, double* %11, align 8
  %55 = fcmp olt double %54, 0.000000e+00
  br i1 %55, label %56, label %58

56:                                               ; preds = %2
  %57 = call i32 (i8*, ...) @printf(i8* getelementptr inbounds ([14 x i8], [14 x i8]* @.str.1, i64 0, i64 0))
  br label %62

58:                                               ; preds = %2
  %59 = load double, double* %11, align 8
  %60 = call double @sqrt(double %59) #3
  %61 = call i32 (i8*, ...) @printf(i8* getelementptr inbounds ([6 x i8], [6 x i8]* @.str.2, i64 0, i64 0), double %60)
  br label %62

62:                                               ; preds = %58, %56
  ret i32 0
}

declare dso_local i32 @__isoc99_scanf(i8*, ...) #1

; Function Attrs: nounwind
declare dso_local double @cos(double) #2

declare dso_local i32 @printf(i8*, ...) #1

; Function Attrs: nounwind
declare dso_local double @sqrt(double) #2


!llvm.module.flags = !{!0}
!llvm.ident = !{!1}

!0 = !{i32 1, !"wchar_size", i32 4}
!1 = !{!"clang version 10.0.0-4ubuntu1 "}
